target datalayout = "e-m:e-p270:32:32-p271:32:32-p272:64:64-i64:64-i128:128-f80:128-n8:16:32:64-S128"
target triple = "x86_64-pc-linux-gnu"

@.str.1 = private unnamed_addr constant [15 x i8] c"parse_coerce.c\00", align 1
@.str.6 = private unnamed_addr constant [35 x i8] c"%s could not convert type %s to %s\00", align 1
@__func__.coerce_to_common_type = private unnamed_addr constant [22 x i8] c"coerce_to_common_type\00", align 1

; Function Attrs: nounwind uwtable
define dso_local ptr @coerce_to_common_type(ptr noundef %0, ptr noundef %1, i32 noundef %2, ptr noundef %3) #0 {
  %5 = alloca ptr, align 8
  %6 = alloca ptr, align 8
  %7 = alloca ptr, align 8
  %8 = alloca i32, align 4
  %9 = alloca ptr, align 8
  %10 = alloca i32, align 4
  %11 = alloca i32, align 4
  store ptr %0, ptr %6, align 8
  store ptr %1, ptr %7, align 8
  store i32 %2, ptr %8, align 4
  store ptr %3, ptr %9, align 8
  call void @llvm.lifetime.start.p0(i64 4, ptr %10) #6
  %12 = load ptr, ptr %7, align 8
  %13 = call i32 @exprType(ptr noundef %12)
  store i32 %13, ptr %10, align 4
  %14 = load i32, ptr %10, align 4
  %15 = load i32, ptr %8, align 4
  %16 = icmp eq i32 %14, %15
  br i1 %16, label %17, label %19

17:                                               ; preds = %4
  %18 = load ptr, ptr %7, align 8
  store ptr %18, ptr %5, align 8
  store i32 1, ptr %11, align 4
  br label %50

19:                                               ; preds = %4
  %20 = call zeroext i1 @can_coerce_type(i32 noundef 1, ptr noundef %10, ptr noundef %8, i32 noundef 0)
  br i1 %20, label %21, label %27

21:                                               ; preds = %19
  %22 = load ptr, ptr %6, align 8
  %23 = load ptr, ptr %7, align 8
  %24 = load i32, ptr %10, align 4
  %25 = load i32, ptr %8, align 4
  %26 = call ptr @coerce_type(ptr noundef %22, ptr noundef %23, i32 noundef %24, i32 noundef %25, i32 noundef -1, i32 noundef 0, i32 noundef 2, i32 noundef -1)
  store ptr %26, ptr %7, align 8
  br label %48

27:                                               ; preds = %19
  br label %28

28:                                               ; preds = %27
  br i1 true, label %29, label %31

29:                                               ; preds = %28
  %30 = call zeroext i1 @errstart_cold(i32 noundef 21, ptr noundef null) #7
  br i1 %30, label %33, label %45

31:                                               ; preds = %28
  %32 = call zeroext i1 @errstart(i32 noundef 21, ptr noundef null)
  br i1 %32, label %33, label %45

33:                                               ; preds = %31, %29
  %34 = call i32 @errcode(i32 noundef 101744772)
  %35 = load ptr, ptr %9, align 8
  %36 = load i32, ptr %10, align 4
  %37 = call ptr @format_type_be(i32 noundef %36)
  %38 = load i32, ptr %8, align 4
  %39 = call ptr @format_type_be(i32 noundef %38)
  %40 = call i32 (ptr, ...) @errmsg(ptr noundef @.str.6, ptr noundef %35, ptr noundef %37, ptr noundef %39)
  %41 = load ptr, ptr %6, align 8
  %42 = load ptr, ptr %7, align 8
  %43 = call i32 @exprLocation(ptr noundef %42)
  %44 = call i32 @parser_errposition(ptr noundef %41, i32 noundef %43)
  call void @errfinish(ptr noundef @.str.1, i32 noundef 1590, ptr noundef @__func__.coerce_to_common_type)
  br label %45

45:                                               ; preds = %33, %31, %29
  unreachable

46:                                               ; No predecessors!
  br label %47

47:                                               ; preds = %46
  br label %48

48:                                               ; preds = %47, %21
  %49 = load ptr, ptr %7, align 8
  store ptr %49, ptr %5, align 8
  store i32 1, ptr %11, align 4
  br label %50

50:                                               ; preds = %48, %17
  call void @llvm.lifetime.end.p0(i64 4, ptr %10) #6
  %51 = load ptr, ptr %5, align 8
  ret ptr %51
}