; Function Attrs: nounwind uwtable
define dso_local ptr @coerce_to_common_type(ptr noundef %0, ptr noundef %1, i32 noundef %2, ptr noundef %3) local_unnamed_addr #0 {
  %5 = alloca i32, align 4
  %6 = alloca i32, align 4
  store i32 %2, ptr %5, align 4
  call void @llvm.lifetime.start.p0(i64 4, ptr nonnull %6) #5
  %7 = tail call i32 @exprType(ptr noundef %1) #5
  store i32 %7, ptr %6, align 4
  %8 = icmp eq i32 %7, %2
  br i1 %8, label %21, label %9

9:                                                ; preds = %4
  %10 = call zeroext i1 @can_coerce_type(i32 noundef 1, ptr noundef nonnull %6, ptr noundef nonnull %5, i32 noundef 0)
  br i1 %10, label %11, label %13

11:                                               ; preds = %9
  %12 = tail call ptr @coerce_type(ptr noundef %0, ptr noundef %1, i32 noundef %7, i32 noundef %2, i32 noundef -1, i32 noundef 0, i32 noundef 2, i32 noundef -1)
  br label %21

13:                                               ; preds = %9
  %14 = tail call zeroext i1 @errstart_cold(i32 noundef 21, ptr noundef null) #6
  tail call void @llvm.assume(i1 %14)
  %15 = tail call i32 @errcode(i32 noundef 101744772) #5
  %16 = tail call ptr @format_type_be(i32 noundef %7) #5
  %17 = tail call ptr @format_type_be(i32 noundef %2) #5
  %18 = tail call i32 (ptr, ...) @errmsg(ptr noundef nonnull @.str.6, ptr noundef %3, ptr noundef %16, ptr noundef %17) #5
  %19 = tail call i32 @exprLocation(ptr noundef %1) #5
  %20 = tail call i32 @parser_errposition(ptr noundef %0, i32 noundef %19) #5
  tail call void @errfinish(ptr noundef nonnull @.str.1, i32 noundef 1590, ptr noundef nonnull @__func__.coerce_to_common_type) #5
  unreachable

21:                                               ; preds = %4, %11
  %.0 = phi ptr [ %12, %11 ], [ %1, %4 ]
  call void @llvm.lifetime.end.p0(i64 4, ptr nonnull %6) #5
  ret ptr %.0
}